target datalayout = "e-m:e-p270:32:32-p271:32:32-p272:64:64-i64:64-i128:128-f80:128-n8:16:32:64-S128"
target triple = "x86_64-pc-linux-gnu"

%struct.slurm_conf_t = type { i64, ptr, i16, ptr, ptr, ptr, ptr, ptr, i16, ptr, ptr, ptr, ptr, ptr, ptr, ptr, i16, ptr, ptr, ptr, ptr, i16, ptr, ptr, ptr, i64, ptr, ptr, ptr, ptr, i16, ptr, ptr, i16, i32, ptr, i32, ptr, i32, i32, ptr, ptr, i64, i64, ptr, i16, i16, ptr, i32, i32, ptr, i32, ptr, i32, i16, i16, i16, ptr, i16, i16, ptr, ptr, i32, i16, i16, ptr, i32, i16, ptr, ptr, ptr, ptr, i16, ptr, ptr, ptr, ptr, i32, ptr, ptr, ptr, ptr, i16, i16, ptr, i32, i32, i32, i16, i16, ptr, ptr, i16, ptr, ptr, i32, i32, i32, i32, i32, i64, i32, i32, i16, ptr, ptr, i32, ptr, ptr, ptr, i16, i32, ptr, ptr, i16, ptr, ptr, i32, i16, ptr, ptr, ptr, ptr, i32, i32, i16, i16, i32, ptr, i16, ptr, i32, i32, i32, i32, i32, i32, ptr, i16, ptr, ptr, i32, i16, ptr, i32, i16, i16, ptr, ptr, ptr, i16, ptr, ptr, ptr, ptr, i16, i16, ptr, i16, ptr, i16, ptr, i16, ptr, i16, ptr, ptr, ptr, ptr, i16, ptr, ptr, ptr, i32, ptr, i32, ptr, ptr, i16, ptr, ptr, i32, i16, ptr, ptr, i16, i16, ptr, i16, ptr, ptr, ptr, i32, ptr, i16, i16, ptr, ptr, ptr, ptr, ptr, ptr, ptr, ptr, i16, i32, i16, ptr, ptr, ptr, ptr, i32, ptr, ptr, ptr, i16, ptr, ptr, ptr, i16, ptr, i16, ptr, i16, i16, ptr }
%struct.iovec = type { ptr, i64 }
%struct.msg_bufs_t = type { ptr, ptr, ptr }
%struct.buf_t = type { i32, ptr, i32, i32, i8, i8 }

@slurm_conf = external global %struct.slurm_conf_t, align 8

; Function Attrs: inlinehint nounwind uwtable
define internal i32 @__bswap_32(i32 noundef %0) #2 {
  %2 = alloca i32, align 4
  store i32 %0, ptr %2, align 4
  %3 = load i32, ptr %2, align 4
  %4 = and i32 %3, -16777216
  %5 = lshr i32 %4, 24
  %6 = load i32, ptr %2, align 4
  %7 = and i32 %6, 16711680
  %8 = lshr i32 %7, 8
  %9 = or i32 %5, %8
  %10 = load i32, ptr %2, align 4
  %11 = and i32 %10, 65280
  %12 = shl i32 %11, 8
  %13 = or i32 %9, %12
  %14 = load i32, ptr %2, align 4
  %15 = and i32 %14, 255
  %16 = shl i32 %15, 24
  %17 = or i32 %13, %16
  ret i32 %17
}

; Function Attrs: nounwind uwtable
define dso_local i64 @slurm_bufs_sendto(i32 noundef %0, ptr noundef %1) #0 {
  %3 = alloca i32, align 4
  %4 = alloca ptr, align 8
  %5 = alloca [4 x %struct.iovec], align 16
  %6 = alloca i32, align 4
  %7 = alloca i32, align 4
  %8 = alloca ptr, align 8
  %9 = alloca i32, align 4
  store i32 %0, ptr %3, align 4
  store ptr %1, ptr %4, align 8
  call void @llvm.lifetime.start.p0(i64 64, ptr %5) #9
  call void @llvm.lifetime.start.p0(i64 4, ptr %6) #9
  call void @llvm.lifetime.start.p0(i64 4, ptr %7) #9
  call void @llvm.lifetime.start.p0(i64 8, ptr %8) #9
  call void @llvm.lifetime.start.p0(i64 4, ptr %9) #9
  %10 = load i16, ptr getelementptr inbounds nuw (%struct.slurm_conf_t, ptr @slurm_conf, i32 0, i32 110), align 8
  %11 = zext i16 %10 to i32
  %12 = mul nsw i32 %11, 1000
  store i32 %12, ptr %9, align 4
  %13 = call ptr @xsignal(i32 noundef 13, ptr noundef inttoptr (i64 1 to ptr))
  store ptr %13, ptr %8, align 8
  %14 = getelementptr inbounds [4 x %struct.iovec], ptr %5, i64 0, i64 0
  %15 = getelementptr inbounds nuw %struct.iovec, ptr %14, i32 0, i32 0
  store ptr %7, ptr %15, align 16
  %16 = getelementptr inbounds [4 x %struct.iovec], ptr %5, i64 0, i64 0
  %17 = getelementptr inbounds nuw %struct.iovec, ptr %16, i32 0, i32 1
  store i64 4, ptr %17, align 8
  %18 = load ptr, ptr %4, align 8
  %19 = getelementptr inbounds nuw %struct.msg_bufs_t, ptr %18, i32 0, i32 0
  %20 = load ptr, ptr %19, align 8
  %21 = getelementptr inbounds nuw %struct.buf_t, ptr %20, i32 0, i32 1
  %22 = load ptr, ptr %21, align 8
  %23 = getelementptr inbounds [4 x %struct.iovec], ptr %5, i64 0, i64 1
  %24 = getelementptr inbounds nuw %struct.iovec, ptr %23, i32 0, i32 0
  store ptr %22, ptr %24, align 16
  %25 = load ptr, ptr %4, align 8
  %26 = getelementptr inbounds nuw %struct.msg_bufs_t, ptr %25, i32 0, i32 0
  %27 = load ptr, ptr %26, align 8
  %28 = getelementptr inbounds nuw %struct.buf_t, ptr %27, i32 0, i32 3
  %29 = load i32, ptr %28, align 4
  %30 = zext i32 %29 to i64
  %31 = getelementptr inbounds [4 x %struct.iovec], ptr %5, i64 0, i64 1
  %32 = getelementptr inbounds nuw %struct.iovec, ptr %31, i32 0, i32 1
  store i64 %30, ptr %32, align 8
  %33 = load ptr, ptr %4, align 8
  %34 = getelementptr inbounds nuw %struct.msg_bufs_t, ptr %33, i32 0, i32 1
  %35 = load ptr, ptr %34, align 8
  %36 = icmp ne ptr %35, null
  br i1 %36, label %37, label %43

37:                                               ; preds = %2
  %38 = load ptr, ptr %4, align 8
  %39 = getelementptr inbounds nuw %struct.msg_bufs_t, ptr %38, i32 0, i32 1
  %40 = load ptr, ptr %39, align 8
  %41 = getelementptr inbounds nuw %struct.buf_t, ptr %40, i32 0, i32 1
  %42 = load ptr, ptr %41, align 8
  br label %44

43:                                               ; preds = %2
  br label %44

44:                                               ; preds = %43, %37
  %45 = phi ptr [ %42, %37 ], [ null, %43 ]
  %46 = getelementptr inbounds [4 x %struct.iovec], ptr %5, i64 0, i64 2
  %47 = getelementptr inbounds nuw %struct.iovec, ptr %46, i32 0, i32 0
  store ptr %45, ptr %47, align 16
  %48 = load ptr, ptr %4, align 8
  %49 = getelementptr inbounds nuw %struct.msg_bufs_t, ptr %48, i32 0, i32 1
  %50 = load ptr, ptr %49, align 8
  %51 = icmp ne ptr %50, null
  br i1 %51, label %52, label %58

52:                                               ; preds = %44
  %53 = load ptr, ptr %4, align 8
  %54 = getelementptr inbounds nuw %struct.msg_bufs_t, ptr %53, i32 0, i32 1
  %55 = load ptr, ptr %54, align 8
  %56 = getelementptr inbounds nuw %struct.buf_t, ptr %55, i32 0, i32 3
  %57 = load i32, ptr %56, align 4
  br label %59

58:                                               ; preds = %44
  br label %59

59:                                               ; preds = %58, %52
  %60 = phi i32 [ %57, %52 ], [ 0, %58 ]
  %61 = zext i32 %60 to i64
  %62 = getelementptr inbounds [4 x %struct.iovec], ptr %5, i64 0, i64 2
  %63 = getelementptr inbounds nuw %struct.iovec, ptr %62, i32 0, i32 1
  store i64 %61, ptr %63, align 8
  %64 = load ptr, ptr %4, align 8
  %65 = getelementptr inbounds nuw %struct.msg_bufs_t, ptr %64, i32 0, i32 2
  %66 = load ptr, ptr %65, align 8
  %67 = getelementptr inbounds nuw %struct.buf_t, ptr %66, i32 0, i32 1
  %68 = load ptr, ptr %67, align 8
  %69 = getelementptr inbounds [4 x %struct.iovec], ptr %5, i64 0, i64 3
  %70 = getelementptr inbounds nuw %struct.iovec, ptr %69, i32 0, i32 0
  store ptr %68, ptr %70, align 16
  %71 = load ptr, ptr %4, align 8
  %72 = getelementptr inbounds nuw %struct.msg_bufs_t, ptr %71, i32 0, i32 2
  %73 = load ptr, ptr %72, align 8
  %74 = getelementptr inbounds nuw %struct.buf_t, ptr %73, i32 0, i32 3
  %75 = load i32, ptr %74, align 4
  %76 = zext i32 %75 to i64
  %77 = getelementptr inbounds [4 x %struct.iovec], ptr %5, i64 0, i64 3
  %78 = getelementptr inbounds nuw %struct.iovec, ptr %77, i32 0, i32 1
  store i64 %76, ptr %78, align 8
  %79 = getelementptr inbounds [4 x %struct.iovec], ptr %5, i64 0, i64 1
  %80 = getelementptr inbounds nuw %struct.iovec, ptr %79, i32 0, i32 1
  %81 = load i64, ptr %80, align 8
  %82 = getelementptr inbounds [4 x %struct.iovec], ptr %5, i64 0, i64 2
  %83 = getelementptr inbounds nuw %struct.iovec, ptr %82, i32 0, i32 1
  %84 = load i64, ptr %83, align 8
  %85 = add i64 %81, %84
  %86 = getelementptr inbounds [4 x %struct.iovec], ptr %5, i64 0, i64 3
  %87 = getelementptr inbounds nuw %struct.iovec, ptr %86, i32 0, i32 1
  %88 = load i64, ptr %87, align 8
  %89 = add i64 %85, %88
  %90 = trunc i64 %89 to i32
  %91 = call i32 @__bswap_32(i32 noundef %90)
  store i32 %91, ptr %7, align 4
  %92 = load i32, ptr %3, align 4
  %93 = getelementptr inbounds [4 x %struct.iovec], ptr %5, i64 0, i64 0
  %94 = load i32, ptr %9, align 4
  %95 = call i32 @_writev_timeout(i32 noundef %92, ptr noundef %93, i32 noundef 4, i32 noundef %94)
  store i32 %95, ptr %6, align 4
  %96 = load ptr, ptr %8, align 8
  %97 = call ptr @xsignal(i32 noundef 13, ptr noundef %96)
  %98 = load i32, ptr %6, align 4
  %99 = sext i32 %98 to i64
  call void @llvm.lifetime.end.p0(i64 4, ptr %9) #9
  call void @llvm.lifetime.end.p0(i64 8, ptr %8) #9
  call void @llvm.lifetime.end.p0(i64 4, ptr %7) #9
  call void @llvm.lifetime.end.p0(i64 4, ptr %6) #9
  call void @llvm.lifetime.end.p0(i64 64, ptr %5) #9
  ret i64 %99
}