; Function Attrs: nounwind uwtable
define dso_local range(i64 -2147483648, 2147483648) i64 @slurm_bufs_sendto(i32 noundef %0, ptr noundef readonly captures(none) %1) local_unnamed_addr #0 {
  %3 = alloca [4 x %struct.iovec], align 16
  %4 = alloca i32, align 4
  call void @llvm.lifetime.start.p0(i64 64, ptr nonnull %3) #11
  call void @llvm.lifetime.start.p0(i64 4, ptr nonnull %4) #11
  %5 = load i16, ptr getelementptr inbounds nuw (i8, ptr @slurm_conf, i64 744), align 8
  %6 = tail call ptr @xsignal(i32 noundef 13, ptr noundef nonnull inttoptr (i64 1 to ptr)) #11
  store ptr %4, ptr %3, align 16
  %7 = getelementptr inbounds nuw i8, ptr %3, i64 8
  store i64 4, ptr %7, align 8
  %8 = load ptr, ptr %1, align 8
  %9 = getelementptr inbounds nuw i8, ptr %8, i64 8
  %10 = load ptr, ptr %9, align 8
  %11 = getelementptr inbounds nuw i8, ptr %3, i64 16
  store ptr %10, ptr %11, align 16
  %12 = getelementptr inbounds nuw i8, ptr %8, i64 20
  %13 = load i32, ptr %12, align 4
  %14 = zext i32 %13 to i64
  %15 = getelementptr inbounds nuw i8, ptr %3, i64 24
  store i64 %14, ptr %15, align 8
  %16 = getelementptr inbounds nuw i8, ptr %1, i64 8
  %17 = load ptr, ptr %16, align 8
  %.not = icmp eq ptr %17, null
  br i1 %.not, label %.thread, label %19

.thread:                                          ; preds = %2
  %18 = getelementptr inbounds nuw i8, ptr %3, i64 32
  store ptr null, ptr %18, align 16
  br label %26

19:                                               ; preds = %2
  %20 = getelementptr inbounds nuw i8, ptr %17, i64 8
  %21 = load ptr, ptr %20, align 8
  %22 = getelementptr inbounds nuw i8, ptr %3, i64 32
  store ptr %21, ptr %22, align 16
  %23 = getelementptr inbounds nuw i8, ptr %17, i64 20
  %24 = load i32, ptr %23, align 4
  %25 = zext i32 %24 to i64
  br label %26

26:                                               ; preds = %.thread, %19
  %27 = phi i64 [ %25, %19 ], [ 0, %.thread ]
  %28 = zext i16 %5 to i32
  %29 = mul nuw nsw i32 %28, 1000
  %30 = getelementptr inbounds nuw i8, ptr %3, i64 40
  store i64 %27, ptr %30, align 8
  %31 = getelementptr inbounds nuw i8, ptr %1, i64 16
  %32 = load ptr, ptr %31, align 8
  %33 = getelementptr inbounds nuw i8, ptr %32, i64 8
  %34 = load ptr, ptr %33, align 8
  %35 = getelementptr inbounds nuw i8, ptr %3, i64 48
  store ptr %34, ptr %35, align 16
  %36 = getelementptr inbounds nuw i8, ptr %32, i64 20
  %37 = load i32, ptr %36, align 4
  %38 = zext i32 %37 to i64
  %39 = getelementptr inbounds nuw i8, ptr %3, i64 56
  store i64 %38, ptr %39, align 8
  %40 = trunc nuw i64 %27 to i32
  %41 = add i32 %13, %40
  %42 = add i32 %41, %37
  %43 = call noundef i32 @llvm.bswap.i32(i32 %42)
  store i32 %43, ptr %4, align 4
  %44 = call fastcc i32 @_writev_timeout(i32 noundef %0, ptr noundef %3, i32 noundef 4, i32 noundef %29)
  %45 = call ptr @xsignal(i32 noundef 13, ptr noundef %6) #11
  %46 = sext i32 %44 to i64
  call void @llvm.lifetime.end.p0(i64 4, ptr nonnull %4) #11
  call void @llvm.lifetime.end.p0(i64 64, ptr nonnull %3) #11
  ret i64 %46
}